; Function Attrs: nofree nounwind uwtable
define noalias noundef ptr @QuadTree_new(i32 noundef %0, ptr noundef readonly captures(none) %1, double noundef %2, i32 noundef %3) local_unnamed_addr #1 {
  %5 = tail call noalias dereferenceable_or_null(80) ptr @calloc(i64 noundef 1, i64 noundef range(i64 8, 81) 80) #15
  %6 = icmp eq ptr %5, null
  br i1 %6, label %7, label %gv_alloc.exit

7:                                                ; preds = %4
  %8 = load ptr, ptr @stderr, align 8, !tbaa !16
  %9 = tail call i32 (ptr, ptr, ...) @fprintf(ptr noundef %8, ptr noundef nonnull @.str.5, i64 noundef 80) #16
  tail call fastcc void @graphviz_exit() #17
  unreachable

gv_alloc.exit:                                    ; preds = %4
  %10 = getelementptr inbounds nuw i8, ptr %5, i64 16
  store i32 %0, ptr %10, align 8, !tbaa !3
  %11 = sext i32 %0 to i64
  %.not.i = icmp eq i32 %0, 0
  br i1 %.not.i, label %gv_calloc.exit, label %12

12:                                               ; preds = %gv_alloc.exit
  %mul.ov.i = icmp slt i32 %0, 0
  br i1 %mul.ov.i, label %13, label %16

13:                                               ; preds = %12
  %14 = load ptr, ptr @stderr, align 8, !tbaa !16
  %15 = tail call i32 (ptr, ptr, ...) @fprintf(ptr noundef %14, ptr noundef nonnull @.str.4, i64 noundef %11, i64 noundef 8) #16
  tail call fastcc void @graphviz_exit() #17
  unreachable

16:                                               ; preds = %12
  %17 = tail call noalias ptr @calloc(i64 noundef %11, i64 noundef 8) #15
  %18 = icmp eq ptr %17, null
  br i1 %18, label %19, label %.lr.ph.preheader

19:                                               ; preds = %16
  %20 = load ptr, ptr @stderr, align 8, !tbaa !16
  %21 = shl nuw nsw i64 %11, 3
  %22 = tail call i32 (ptr, ptr, ...) @fprintf(ptr noundef %20, ptr noundef nonnull @.str.5, i64 noundef %21) #16
  tail call fastcc void @graphviz_exit() #17
  unreachable

gv_calloc.exit:                                   ; preds = %gv_alloc.exit
  %23 = tail call noalias ptr @calloc(i64 noundef 0, i64 noundef 8) #15
  %24 = getelementptr inbounds nuw i8, ptr %5, i64 24
  store ptr %23, ptr %24, align 8, !tbaa !27
  br label %._crit_edge

.lr.ph.preheader:                                 ; preds = %16
  %25 = getelementptr inbounds nuw i8, ptr %5, i64 24
  store ptr %17, ptr %25, align 8, !tbaa !27
  %26 = zext nneg i32 %0 to i64
  %27 = shl nuw nsw i64 %26, 3
  tail call void @llvm.memcpy.p0.p0.i64(ptr nonnull align 8 %17, ptr align 8 %1, i64 %27, i1 false), !tbaa !13
  br label %._crit_edge

._crit_edge:                                      ; preds = %gv_calloc.exit, %.lr.ph.preheader
  %28 = getelementptr inbounds nuw i8, ptr %5, i64 32
  store double %2, ptr %28, align 8, !tbaa !28
  %29 = getelementptr inbounds nuw i8, ptr %5, i64 64
  store i32 %3, ptr %29, align 8, !tbaa !58
  ret ptr %5
}